/*
 * Intel ACPI Component Architecture
 * AML/ASL+ Disassembler version 20190703 (64-bit version)
 * Copyright (c) 2000 - 2019 Intel Corporation
 * 
 * Disassembly of fidt.dat, Sun Oct  6 00:11:47 2019
 *
 * ACPI Data Table [FIDT]
 *
 * Format: [HexOffset DecimalOffset ByteLength]  FieldName : FieldValue
 */

[000h 0000   4]                    Signature : "FIDT"    
[004h 0004   4]                 Table Length : 0000009C
[008h 0008   1]                     Revision : 01
[009h 0009   1]                     Checksum : 98
[00Ah 0010   6]                       Oem ID : ""
[010h 0016   8]                 Oem Table ID : ""
[018h 0024   4]                 Oem Revision : 01072009
[01Ch 0028   4]              Asl Compiler ID : "AMI "
[020h 0032   4]        Asl Compiler Revision : 00010013


**** Unknown ACPI table signature [FIDT]


Raw Table Data: Length 156 (0x9C)

    0000: 46 49 44 54 9C 00 00 00 01 98 00 00 00 00 00 00  // FIDT............
    0010: 00 00 00 00 00 00 00 00 09 20 07 01 41 4D 49 20  // ......... ..AMI 
    0020: 13 00 01 00 24 46 49 44 04 78 00 31 30 38 39 36  // ....$FID.x.10896
    0030: 30 30 30 30 C6 71 E9 8B 4F 7C BB 4F BA D6 8C FE  // 0000.q..O|.O....
    0040: D0 AD E5 B3 30 35 00 31 31 00 30 32 00 34 32 00  // ....05.11.02.42.
    0050: 00 00 00 00 00 00 00 FF FF 53 55 50 45 52 4D 53  // .........SUPERMS
    0060: 4D 43 49 2D 2D 4D 42 00 00 00 00 00 00 00 00 00  // MCI--MB.........
    0070: 00 00 00 00 00 00 00 00 00 00 00 00 00 00 00 00  // ................
    0080: 00 00 00 00 00 00 00 00 00 00 00 00 00 00 00 00  // ................
    0090: 00 00 00 00 00 00 00 00 00 00 00 00              // ............
