/*
 * Intel ACPI Component Architecture
 * AML/ASL+ Disassembler version 20190703 (64-bit version)
 * Copyright (c) 2000 - 2019 Intel Corporation
 * 
 * Disassembly of prad.dat, Sun Oct  6 00:11:47 2019
 *
 * ACPI Data Table [PRAD]
 *
 * Format: [HexOffset DecimalOffset ByteLength]  FieldName : FieldValue
 */

[000h 0000   4]                    Signature : "PRAD"    
[004h 0004   4]                 Table Length : 000000CA
[008h 0008   1]                     Revision : 02
[009h 0009   1]                     Checksum : 17
[00Ah 0010   6]                       Oem ID : "PRADID"
[010h 0016   8]                 Oem Table ID : "PRADTID"
[018h 0024   4]                 Oem Revision : 00000001
[01Ch 0028   4]              Asl Compiler ID : "INTL"
[020h 0032   4]        Asl Compiler Revision : 20120913


**** Unknown ACPI table signature [PRAD]


Raw Table Data: Length 202 (0xCA)

    0000: 50 52 41 44 CA 00 00 00 02 17 50 52 41 44 49 44  // PRAD......PRADID
    0010: 50 52 41 44 54 49 44 00 01 00 00 00 49 4E 54 4C  // PRADTID.....INTL
    0020: 13 09 12 20 10 45 0A 5C 5F 53 42 5F 5B 82 4C 09  // ... .E.\_SB_[.L.
    0030: 50 52 41 44 08 5F 48 49 44 0D 41 43 50 49 30 30  // PRAD._HID.ACPI00
    0040: 30 43 00 14 09 5F 53 54 41 00 A4 0A 0F 14 38 5F  // 0C..._STA.....8_
    0050: 50 55 52 00 08 49 44 4C 5F 12 04 02 01 00 7B 7D  // PUR..IDL_.....{}
    0060: 50 55 52 41 0A 80 00 0B FF FF 50 55 52 42 7B 7A  // PURA......PURB{z
    0070: 50 55 52 41 0A 10 00 0B FF FF 88 49 44 4C 5F 01  // PURA.......IDL_.
    0080: 00 A4 49 44 4C 5F 14 43 04 5F 4F 53 54 0B A0 3B  // ..IDL_.C._OST..;
    0090: 93 7B 5C 50 55 52 42 0A FF 00 0A 83 74 54 48 4E  // .{\PURB.....tTHN
    00A0: 55 99 6A 00 62 7D 50 55 52 42 79 62 0A 10 00 50  // U.j.b}PURByb...P
    00B0: 55 52 42 5C 2F 04 5F 53 42 5F 50 43 49 30 48 45  // URB\/._SB_PCI0HE
    00C0: 43 32 44 43 4E 46 50 55 52 42                    // C2DCNFPURB
